target datalayout = "e-m:e-p270:32:32-p271:32:32-p272:64:64-i64:64-i128:128-f80:128-n8:16:32:64-S128"
target triple = "x86_64-pc-linux-gnu"

%"struct.boost::none_t" = type { i8 }

@_ZN5boost4noneE = linkonce_odr dso_local global %"struct.boost::none_t" zeroinitializer, comdat, align 1
@_ZGVN5boost4noneE = linkonce_odr dso_local global i64 0, comdat($_ZN5boost4noneE), align 8

; Function Attrs: mustprogress nounwind uwtable
define linkonce_odr dso_local void @_ZN5boost6none_tC2ENS0_8init_tagE(ptr noundef nonnull align 1 dereferenceable(1) %0) unnamed_addr #4 comdat align 2 {
  %2 = alloca ptr, align 8
  store ptr %0, ptr %2, align 8, !tbaa !4
  ret void
}

; Function Attrs: uwtable
define internal void @__cxx_global_var_init.1() #0 section ".text.startup" comdat($_ZN5boost4noneE) personality ptr @__gxx_personality_v0 {
  %1 = alloca ptr, align 8
  %2 = alloca i32, align 4
  %3 = load atomic i8, ptr @_ZGVN5boost4noneE acquire, align 8
  %4 = icmp eq i8 %3, 0
  br i1 %4, label %5, label %11

5:                                                ; preds = %0
  %6 = call i32 @__cxa_guard_acquire(ptr @_ZGVN5boost4noneE) #3
  %7 = icmp ne i32 %6, 0
  br i1 %7, label %8, label %11

8:                                                ; preds = %5
  invoke void @_ZN5boost6none_tC2ENS0_8init_tagE(ptr noundef nonnull align 1 dereferenceable(1) @_ZN5boost4noneE)
          to label %9 unwind label %12

9:                                                ; preds = %8
  %10 = call ptr @llvm.invariant.start.p0(i64 1, ptr @_ZN5boost4noneE)
  call void @__cxa_guard_release(ptr @_ZGVN5boost4noneE) #3
  br label %11

11:                                               ; preds = %9, %5, %0
  ret void

12:                                               ; preds = %8
  %13 = landingpad { ptr, i32 }
          cleanup
  %14 = extractvalue { ptr, i32 } %13, 0
  store ptr %14, ptr %1, align 8
  %15 = extractvalue { ptr, i32 } %13, 1
  store i32 %15, ptr %2, align 4
  call void @__cxa_guard_abort(ptr @_ZGVN5boost4noneE) #3
  br label %16

16:                                               ; preds = %12
  %17 = load ptr, ptr %1, align 8
  %18 = load i32, ptr %2, align 4
  %19 = insertvalue { ptr, i32 } poison, ptr %17, 0
  %20 = insertvalue { ptr, i32 } %19, i32 %18, 1
  resume { ptr, i32 } %20
}